00000105  E80000            call 0x108
00000108  90                nop
00000109  90                nop
0000010A  90                nop
0000010B  5D                pop bp
0000010C  90                nop
0000010D  81ED0801          sub bp,0x108
00000111  E87B03            call 0x48f
00000114  81FC4241          cmp sp,0x4142
00000118  740D              jz 0x127
0000011A  8DB65904          lea si,[bp+0x459]
0000011E  BF0001            mov di,0x100
00000121  57                push di
00000122  A4                movsb
00000123  A5                movsw
00000124  A5                movsw
00000125  EB12              jmp short 0x139
00000127  1E                push ds
00000128  06                push es
00000129  0E                push cs
0000012A  1F                pop ds
0000012B  0E                push cs
0000012C  07                pop es
0000012D  8DB6C801          lea si,[bp+0x1c8]
00000131  8DBEC001          lea di,[bp+0x1c0]
00000135  A5                movsw
00000136  A5                movsw
00000137  A5                movsw
00000138  A5                movsw
00000139  8D960005          lea dx,[bp+0x500]
0000013D  E84B02            call 0x38b
00000140  2EC686A30400      mov byte [cs:bp+0x4a3],0x0
00000146  B82435            mov ax,0x3524
00000149  CD21              int 0x21
0000014B  2E899E4405        mov [cs:bp+0x544],bx
00000150  2E8C864605        mov [cs:bp+0x546],es
00000155  B425              mov ah,0x25
00000157  8D96A403          lea dx,[bp+0x3a4]
0000015B  CD21              int 0x21
0000015D  0E                push cs
0000015E  07                pop es
0000015F  B447              mov ah,0x47
00000161  B200              mov dl,0x0
00000163  8DB6C004          lea si,[bp+0x4c0]
00000167  CD21              int 0x21
00000169  8D965004          lea dx,[bp+0x450]
0000016D  E86000            call 0x1d0
00000170  8D964A04          lea dx,[bp+0x44a]
00000174  E85900            call 0x1d0
00000177  8D965604          lea dx,[bp+0x456]
0000017B  B43B              mov ah,0x3b
0000017D  CD21              int 0x21
0000017F  73E8              jnc 0x169
00000181  E8A201            call 0x326
00000184  B82425            mov ax,0x2524
00000187  2EC5964405        lds dx,[cs:bp+0x544]
0000018C  CD21              int 0x21
0000018E  0E                push cs
0000018F  1F                pop ds
00000190  8D96C004          lea dx,[bp+0x4c0]
00000194  B43B              mov ah,0x3b
00000196  CD21              int 0x21
00000198  BA8000            mov dx,0x80
0000019B  E8ED01            call 0x38b
0000019E  81FC3E41          cmp sp,0x413e
000001A2  7401              jz 0x1a5
000001A4  C3                ret
000001A5  07                pop es
000001A6  1F                pop ds
000001A7  8CC0              mov ax,es
000001A9  051000            add ax,0x10
000001AC  2E0186C201        add [cs:bp+0x1c2],ax
000001B1  2E0386C601        add ax,[cs:bp+0x1c6]
000001B6  FA                cli
000001B7  2E8BA6C401        mov sp,[cs:bp+0x1c4]
000001BC  8ED0              mov ss,ax
000001BE  FB                sti
000001BF  EA00000000        jmp 0x0:0x0
000001C4  0000              add [bx+si],al
000001C6  0000              add [bx+si],al
000001C8  0000              add [bx+si],al
000001CA  F0FF00            lock inc word [bx+si]
000001CD  0000              add [bx+si],al
000001CF  002E80BE          add [0xbe80],ch
000001D3  A30403            mov [0x304],ax
000001D6  7710              ja 0x1e8
000001D8  B44E              mov ah,0x4e
000001DA  B90700            mov cx,0x7
000001DD  CD21              int 0x21
000001DF  7207              jc 0x1e8
000001E1  E80500            call 0x1e9
000001E4  B44F              mov ah,0x4f
000001E6  EBF5              jmp short 0x1dd
000001E8  C3                ret
000001E9  B8003D            mov ax,0x3d00
000001EC  E8A101            call 0x390
000001EF  B43F              mov ah,0x3f
000001F1  B91A00            mov cx,0x1a
000001F4  8D962A05          lea dx,[bp+0x52a]
000001F8  CD21              int 0x21
000001FA  B43E              mov ah,0x3e
000001FC  CD21              int 0x21
000001FE  2E8B861A05        mov ax,[cs:bp+0x51a]
00000203  3D00FA            cmp ax,0xfa00
00000206  7733              ja 0x23b
00000208  3D5802            cmp ax,0x258
0000020B  722E              jc 0x23b
0000020D  2E81BE2A054D5A    cmp word [cs:bp+0x52a],0x5a4d
00000214  741A              jz 0x230
00000216  2E8B862305        mov ax,[cs:bp+0x523]
0000021B  3D4E44            cmp ax,0x444e
0000021E  741B              jz 0x23b
00000220  2E8B9E1A05        mov bx,[cs:bp+0x51a]
00000225  2E81BE2D054241    cmp word [cs:bp+0x52d],0x4142
0000022C  740D              jz 0x23b
0000022E  EB0C              jmp short 0x23c
00000230  2E81BE3A054241    cmp word [cs:bp+0x53a],0x4142
00000237  7402              jz 0x23b
00000239  EB26              jmp short 0x261
0000023B  C3                ret
0000023C  83EB03            sub bx,byte +0x3
0000023F  8DB62A05          lea si,[bp+0x52a]
00000243  8DBE5904          lea di,[bp+0x459]
00000247  A4                movsb
00000248  A5                movsw
00000249  A5                movsw
0000024A  2EC6862A05E9      mov byte [cs:bp+0x52a],0xe9
00000250  2E899E2B05        mov [cs:bp+0x52b],bx
00000255  2EC7862D054241    mov word [cs:bp+0x52d],0x4142
0000025C  B90500            mov cx,0x5
0000025F  EB76              jmp short 0x2d7
00000261  2EC4863E05        les ax,[cs:bp+0x53e]
00000266  2E8986C801        mov [cs:bp+0x1c8],ax
0000026B  2E8C86CA01        mov [cs:bp+0x1ca],es
00000270  2EC4863805        les ax,[cs:bp+0x538]
00000275  2E8C86CC01        mov [cs:bp+0x1cc],es
0000027A  2E8986CE01        mov [cs:bp+0x1ce],ax
0000027F  2E8B863205        mov ax,[cs:bp+0x532]
00000284  B104              mov cl,0x4
00000286  D3E0              shl ax,cl
00000288  93                xchg ax,bx
00000289  2EC4861A05        les ax,[cs:bp+0x51a]
0000028E  8CC2              mov dx,es
00000290  50                push ax
00000291  52                push dx
00000292  2BC3              sub ax,bx
00000294  83DA00            sbb dx,byte +0x0
00000297  B91000            mov cx,0x10
0000029A  F7F1              div cx
0000029C  2E89963E05        mov [cs:bp+0x53e],dx
000002A1  2E89864005        mov [cs:bp+0x540],ax
000002A6  2E89863805        mov [cs:bp+0x538],ax
000002AB  2EC7863A054241    mov word [cs:bp+0x53a],0x4142
000002B2  5A                pop dx
000002B3  58                pop ax
000002B4  059E03            add ax,0x39e
000002B7  83D200            adc dx,byte +0x0
000002BA  B109              mov cl,0x9
000002BC  50                push ax
000002BD  D3E8              shr ax,cl
000002BF  D3CA              ror dx,cl
000002C1  F9                stc
000002C2  13D0              adc dx,ax
000002C4  58                pop ax
000002C5  80E401            and ah,0x1
000002C8  2E89962E05        mov [cs:bp+0x52e],dx
000002CD  2E89862C05        mov [cs:bp+0x52c],ax
000002D2  0E                push cs
000002D3  07                pop es
000002D4  B91A00            mov cx,0x1a
000002D7  51                push cx
000002D8  33C9              xor cx,cx
000002DA  E8BD00            call 0x39a
000002DD  B002              mov al,0x2
000002DF  E8AE00            call 0x390
000002E2  B440              mov ah,0x40
000002E4  8D962A05          lea dx,[bp+0x52a]
000002E8  59                pop cx
000002E9  CD21              int 0x21
000002EB  721B              jc 0x308
000002ED  B002              mov al,0x2
000002EF  E89000            call 0x382
000002F2  B42C              mov ah,0x2c
000002F4  CD21              int 0x21
000002F6  80FE00            cmp dh,0x0
000002F9  74F7              jz 0x2f2
000002FB  2E88B6A204        mov [cs:bp+0x4a2],dh
00000300  E85B01            call 0x45e
00000303  2EFE86A304        inc byte [cs:bp+0x4a3]
00000308  B80157            mov ax,0x5701
0000030B  2E8B8E1605        mov cx,[cs:bp+0x516]
00000310  2E8B961805        mov dx,[cs:bp+0x518]
00000315  CD21              int 0x21
00000317  B43E              mov ah,0x3e
00000319  CD21              int 0x21
0000031B  33C9              xor cx,cx
0000031D  2E8A8E1505        mov cl,[cs:bp+0x515]
00000322  E87500            call 0x39a
00000325  C3                ret
00000326  B42A              mov ah,0x2a
00000328  CD21              int 0x21
0000032A  81F9C907          cmp cx,0x7c9
0000032E  7251              jc 0x381
00000330  80FA0D            cmp dl,0xd
00000333  754C              jnz 0x381
00000335  B42C              mov ah,0x2c
00000337  CD21              int 0x21
00000339  80FD0D            cmp ch,0xd
0000033C  7543              jnz 0x381
0000033E  B409              mov ah,0x9
00000340  8D96BE03          lea dx,[bp+0x3be]
00000344  CD21              int 0x21
00000346  B90200            mov cx,0x2
00000349  51                push cx
0000034A  FA                cli
0000034B  BAE02E            mov dx,0x2ee0
0000034E  2E2B168813        sub dx,[cs:0x1388]
00000353  BB6400            mov bx,0x64
00000356  B0B6              mov al,0xb6
00000358  E643              out 0x43,al
0000035A  8BC3              mov ax,bx
0000035C  E642              out 0x42,al
0000035E  8AC4              mov al,ah
00000360  E642              out 0x42,al
00000362  E461              in al,0x61
00000364  B400              mov ah,0x0
00000366  0D0300            or ax,0x3
00000369  E661              out 0x61,al
0000036B  43                inc bx
0000036C  B90F00            mov cx,0xf
0000036F  E2FE              loop 0x36f
00000371  4A                dec dx
00000372  83FA00            cmp dx,byte +0x0
00000375  75E3              jnz 0x35a
00000377  E461              in al,0x61
00000379  24FC              and al,0xfc
0000037B  E661              out 0x61,al
0000037D  FB                sti
0000037E  59                pop cx
0000037F  E2C8              loop 0x349
00000381  C3                ret
00000382  B442              mov ah,0x42
00000384  33C9              xor cx,cx
00000386  33D2              xor dx,dx
00000388  CD21              int 0x21
0000038A  C3                ret
0000038B  B41A              mov ah,0x1a
0000038D  CD21              int 0x21
0000038F  C3                ret
00000390  B43D              mov ah,0x3d
00000392  8D961E05          lea dx,[bp+0x51e]
00000396  CD21              int 0x21
00000398  93                xchg ax,bx
00000399  C3                ret
0000039A  B80143            mov ax,0x4301
0000039D  8D961E05          lea dx,[bp+0x51e]
000003A1  CD21              int 0x21
000003A3  C3                ret
000003A4  B003              mov al,0x3
000003A6  CF                iret
000003A7  42                inc dx
000003A8  7562              jnz 0x40c
000003AA  626C65            bound bp,[si+0x65]
000003AD  7320              jnc 0x3cf
000003AF  324164            xor al,[bx+di+0x64]
000003B2  6D                insw
000003B3  6972616C20        imul si,[bp+si+0x61],word 0x206c
000003B8  42                inc dx
000003B9  61                popa
000003BA  696C657942        imul bp,[si+0x65],word 0x4279
000003BF  7562              jnz 0x423
000003C1  626C65            bound bp,[si+0x65]
000003C4  7320              jnc 0x3e6
000003C6  3220              xor ah,[bx+si]
000003C8  3A20              cmp ah,[bx+si]
000003CA  49                dec cx
000003CB  7473              jz 0x440
000003CD  206261            and [bp+si+0x61],ah
000003D0  636B20            arpl [bp+di+0x20],bp
000003D3  61                popa
000003D4  6E                outsb
000003D5  64206265          and [fs:bp+si+0x65],ah
000003D9  7474              jz 0x44f
000003DB  657220            gs jc 0x3fe
000003DE  7468              jz 0x448
000003E0  656E              gs outsb
000003E2  206576            and [di+0x76],ah
000003E5  65722E            gs jc 0x416
000003E8  0A0D              or cl,[di]
000003EA  2020              and [bx+si],ah
000003EC  2020              and [bx+si],ah
000003EE  2020              and [bx+si],ah
000003F0  2020              and [bx+si],ah
000003F2  2020              and [bx+si],ah
000003F4  2020              and [bx+si],ah
000003F6  5E                pop si
000003F7  5E                pop si
000003F8  5E                pop si
000003F9  5E                pop si
000003FA  5E                pop si
000003FB  5E                pop si
000003FC  5E                pop si
000003FD  5E                pop si
000003FE  5E                pop si
000003FF  5E                pop si
00000400  5E                pop si
00000401  5E                pop si
00000402  5E                pop si
00000403  5E                pop si
00000404  5E                pop si
00000405  5E                pop si
00000406  5E                pop si
00000407  5E                pop si
00000408  5E                pop si
00000409  5E                pop si
0000040A  5E                pop si
0000040B  5E                pop si
0000040C  5E                pop si
0000040D  5E                pop si
0000040E  5E                pop si
0000040F  5E                pop si
00000410  5E                pop si
00000411  5E                pop si
00000412  5E                pop si
00000413  0A0D              or cl,[di]
00000415  49                dec cx
00000416  7320              jnc 0x438
00000418  6974206D65        imul si,[si+0x20],word 0x656d
0000041D  206F72            and [bx+0x72],ch
00000420  20646F            and [si+0x6f],ah
00000423  657320            gs jnc 0x446
00000426  7468              jz 0x490
00000428  61                popa
00000429  7420              jz 0x44b
0000042B  4D                dec bp
0000042C  61                popa
0000042D  6B65206E          imul sp,[di+0x20],byte +0x6e
00000431  6F                outsw
00000432  207365            and [bp+di+0x65],dh
00000435  6E                outsb
00000436  7365              jnc 0x49d
00000438  206174            and [bx+di+0x74],ah
0000043B  20616C            and [bx+di+0x6c],ah
0000043E  6C                insb
0000043F  3F                aas
00000440  0A0D              or cl,[di]
00000442  5B                pop bx
00000443  49                dec cx
00000444  56                push si
00000445  50                push ax
00000446  5D                pop bp
00000447  0A0D              or cl,[di]
00000449  242A              and al,0x2a
0000044B  2E636F6D          arpl [cs:bx+0x6d],bp
0000044F  002A              add [bp+si],ch
00000451  2E657865          gs js 0x4ba
00000455  002E2E00          add [0x2e],ch
00000459  CD20              int 0x20
0000045B  0000              add [bx+si],al
0000045D  008DB673          add [di+0x73b6],cl
00000461  048D              add al,0x8d
00000463  BEA404            mov si,0x4a4
00000466  B91C00            mov cx,0x1c
00000469  A4                movsb
0000046A  E2FD              loop 0x469
0000046C  8D96A404          lea dx,[bp+0x4a4]
00000470  FFD2              call dx
00000472  C3                ret
00000473  53                push bx
00000474  8D968F04          lea dx,[bp+0x48f]
00000478  FFD2              call dx
0000047A  5B                pop bx
0000047B  B440              mov ah,0x40
0000047D  B99E03            mov cx,0x39e
00000480  8D960501          lea dx,[bp+0x105]
00000484  CD21              int 0x21
00000486  53                push bx
00000487  8D968F04          lea dx,[bp+0x48f]
0000048B  FFD2              call dx
0000048D  5B                pop bx
0000048E  C3                ret
0000048F  B97B03            mov cx,0x37b
00000492  8DB61401          lea si,[bp+0x114]
00000496  8BFE              mov di,si
00000498  AC                lodsb
00000499  2E32A6A204        xor ah,[cs:bp+0x4a2]
0000049E  AA                stosb
0000049F  E2F7              loop 0x498
000004A1  C3                ret
000004A2  0000              add [bx+si],al
000004A4  0000              add [bx+si],al
000004A6  0000              add [bx+si],al
000004A8  0000              add [bx+si],al
000004AA  0000              add [bx+si],al
000004AC  0000              add [bx+si],al
000004AE  0000              add [bx+si],al
000004B0  0000              add [bx+si],al
000004B2  0000              add [bx+si],al
000004B4  0000              add [bx+si],al
000004B6  0000              add [bx+si],al
000004B8  0000              add [bx+si],al
000004BA  0000              add [bx+si],al
000004BC  0000              add [bx+si],al
000004BE  0000              add [bx+si],al
000004C0  0000              add [bx+si],al
000004C2  0000              add [bx+si],al
000004C4  0000              add [bx+si],al
000004C6  0000              add [bx+si],al
000004C8  0000              add [bx+si],al
000004CA  0000              add [bx+si],al
000004CC  0000              add [bx+si],al
000004CE  0000              add [bx+si],al
000004D0  0000              add [bx+si],al
000004D2  0000              add [bx+si],al
000004D4  0000              add [bx+si],al
000004D6  0000              add [bx+si],al
000004D8  0000              add [bx+si],al
000004DA  0000              add [bx+si],al
000004DC  0000              add [bx+si],al
000004DE  0000              add [bx+si],al
000004E0  0000              add [bx+si],al
000004E2  0000              add [bx+si],al
000004E4  0000              add [bx+si],al
000004E6  0000              add [bx+si],al
000004E8  0000              add [bx+si],al
000004EA  0000              add [bx+si],al
000004EC  0000              add [bx+si],al
000004EE  0000              add [bx+si],al
000004F0  0000              add [bx+si],al
000004F2  0000              add [bx+si],al
000004F4  0000              add [bx+si],al
000004F6  0000              add [bx+si],al
000004F8  0000              add [bx+si],al
000004FA  0000              add [bx+si],al
000004FC  0000              add [bx+si],al
000004FE  0000              add [bx+si],al
00000500  0000              add [bx+si],al
00000502  0000              add [bx+si],al
00000504  0000              add [bx+si],al
00000506  0000              add [bx+si],al
00000508  0000              add [bx+si],al
0000050A  0000              add [bx+si],al
0000050C  0000              add [bx+si],al
0000050E  0000              add [bx+si],al
00000510  0000              add [bx+si],al
00000512  0000              add [bx+si],al
00000514  0000              add [bx+si],al
00000516  0000              add [bx+si],al
00000518  0000              add [bx+si],al
0000051A  0000              add [bx+si],al
0000051C  0000              add [bx+si],al
0000051E  0000              add [bx+si],al
00000520  0000              add [bx+si],al
00000522  0000              add [bx+si],al
00000524  0000              add [bx+si],al
00000526  0000              add [bx+si],al
00000528  0000              add [bx+si],al
0000052A  0000              add [bx+si],al
0000052C  0000              add [bx+si],al
0000052E  0000              add [bx+si],al
00000530  0000              add [bx+si],al
00000532  0000              add [bx+si],al
00000534  0000              add [bx+si],al
00000536  0000              add [bx+si],al
00000538  0000              add [bx+si],al
0000053A  0000              add [bx+si],al
0000053C  0000              add [bx+si],al
0000053E  0000              add [bx+si],al
00000540  0000              add [bx+si],al
00000542  0000              add [bx+si],al
00000544  0000              add [bx+si],al
00000546  0000              add [bx+si],al
00000548  0000              add [bx+si],al
0000054A  0000              add [bx+si],al
0000054C  0000              add [bx+si],al
0000054E  0000              add [bx+si],al
00000550  0000              add [bx+si],al
00000552  0000              add [bx+si],al
00000554  0000              add [bx+si],al
00000556  0000              add [bx+si],al
00000558  0000              add [bx+si],al
0000055A  0000              add [bx+si],al
0000055C  0000              add [bx+si],al
0000055E  0000              add [bx+si],al
00000560  0000              add [bx+si],al
00000562  0000              add [bx+si],al
00000564  0000              add [bx+si],al
00000566  0000              add [bx+si],al
00000568  0000              add [bx+si],al
0000056A  0000              add [bx+si],al
0000056C  0000              add [bx+si],al
0000056E  0000              add [bx+si],al
00000570  0000              add [bx+si],al
00000572  0000              add [bx+si],al
00000574  0000              add [bx+si],al
00000576  0000              add [bx+si],al
00000578  0000              add [bx+si],al
0000057A  0000              add [bx+si],al
0000057C  0000              add [bx+si],al
0000057E  0000              add [bx+si],al
00000580  0000              add [bx+si],al
00000582  0000              add [bx+si],al
00000584  0000              add [bx+si],al
00000586  0000              add [bx+si],al
00000588  0000              add [bx+si],al
0000058A  0000              add [bx+si],al
0000058C  0000              add [bx+si],al
0000058E  0000              add [bx+si],al
00000590  0000              add [bx+si],al
00000592  0000              add [bx+si],al
00000594  0000              add [bx+si],al
00000596  0000              add [bx+si],al
00000598  0000              add [bx+si],al
0000059A  0000              add [bx+si],al
0000059C  0000              add [bx+si],al
0000059E  0000              add [bx+si],al
000005A0  0000              add [bx+si],al
000005A2  0000              add [bx+si],al
000005A4  0000              add [bx+si],al
000005A6  0000              add [bx+si],al
000005A8  0000              add [bx+si],al
000005AA  0000              add [bx+si],al
000005AC  0000              add [bx+si],al
000005AE  0000              add [bx+si],al
000005B0  0000              add [bx+si],al
000005B2  0000              add [bx+si],al
000005B4  0000              add [bx+si],al
000005B6  0000              add [bx+si],al
000005B8  0000              add [bx+si],al
000005BA  0000              add [bx+si],al
000005BC  0000              add [bx+si],al
000005BE  0000              add [bx+si],al
000005C0  0000              add [bx+si],al
000005C2  0000              add [bx+si],al
000005C4  0000              add [bx+si],al
000005C6  0000              add [bx+si],al
000005C8  0000              add [bx+si],al
000005CA  0000              add [bx+si],al
000005CC  0000              add [bx+si],al
000005CE  0000              add [bx+si],al
000005D0  0000              add [bx+si],al
000005D2  0000              add [bx+si],al
000005D4  0000              add [bx+si],al
000005D6  0000              add [bx+si],al
000005D8  0000              add [bx+si],al
000005DA  0000              add [bx+si],al
000005DC  0000              add [bx+si],al
000005DE  0000              add [bx+si],al
000005E0  0000              add [bx+si],al
000005E2  0000              add [bx+si],al
000005E4  0000              add [bx+si],al
000005E6  0000              add [bx+si],al
000005E8  0000              add [bx+si],al
000005EA  0000              add [bx+si],al
000005EC  0000              add [bx+si],al
000005EE  0000              add [bx+si],al
000005F0  0000              add [bx+si],al
000005F2  0000              add [bx+si],al
000005F4  0000              add [bx+si],al
000005F6  0000              add [bx+si],al
000005F8  0000              add [bx+si],al
000005FA  0000              add [bx+si],al
000005FC  0000              add [bx+si],al
000005FE  0000              add [bx+si],al
00000600  0000              add [bx+si],al
00000602  0000              add [bx+si],al
00000604  0000              add [bx+si],al
00000606  0000              add [bx+si],al
00000608  0000              add [bx+si],al
0000060A  0000              add [bx+si],al
0000060C  0000              add [bx+si],al
0000060E  0000              add [bx+si],al
00000610  0000              add [bx+si],al
00000612  0000              add [bx+si],al
00000614  0000              add [bx+si],al
00000616  0000              add [bx+si],al
00000618  0000              add [bx+si],al
0000061A  0000              add [bx+si],al
0000061C  0000              add [bx+si],al
0000061E  0000              add [bx+si],al
00000620  0000              add [bx+si],al
00000622  0000              add [bx+si],al
00000624  0000              add [bx+si],al
00000626  0000              add [bx+si],al
00000628  0000              add [bx+si],al
0000062A  0000              add [bx+si],al
0000062C  0000              add [bx+si],al
0000062E  0000              add [bx+si],al
00000630  0000              add [bx+si],al
00000632  0000              add [bx+si],al
00000634  0000              add [bx+si],al
00000636  0000              add [bx+si],al
00000638  0000              add [bx+si],al
0000063A  0000              add [bx+si],al
0000063C  0000              add [bx+si],al
0000063E  0000              add [bx+si],al
00000640  0000              add [bx+si],al
00000642  0000              add [bx+si],al
00000644  0000              add [bx+si],al
00000646  0000              add [bx+si],al
00000648  0000              add [bx+si],al
0000064A  0000              add [bx+si],al
0000064C  0000              add [bx+si],al
0000064E  0000              add [bx+si],al
00000650  0000              add [bx+si],al
00000652  0000              add [bx+si],al
00000654  0000              add [bx+si],al
00000656  0000              add [bx+si],al
00000658  0000              add [bx+si],al
0000065A  0000              add [bx+si],al
0000065C  0000              add [bx+si],al
0000065E  0000              add [bx+si],al
00000660  0000              add [bx+si],al
00000662  0000              add [bx+si],al
00000664  0000              add [bx+si],al
00000666  0000              add [bx+si],al
00000668  0000              add [bx+si],al
0000066A  0000              add [bx+si],al
0000066C  0000              add [bx+si],al
0000066E  0000              add [bx+si],al
00000670  0000              add [bx+si],al
00000672  0000              add [bx+si],al
00000674  0000              add [bx+si],al
00000676  0000              add [bx+si],al
00000678  0000              add [bx+si],al
0000067A  0000              add [bx+si],al
0000067C  0000              add [bx+si],al
0000067E  0000              add [bx+si],al
00000680  0000              add [bx+si],al
00000682  0000              add [bx+si],al
00000684  0000              add [bx+si],al
00000686  0000              add [bx+si],al
00000688  0000              add [bx+si],al
0000068A  0000              add [bx+si],al
0000068C  0000              add [bx+si],al
0000068E  0000              add [bx+si],al
00000690  0000              add [bx+si],al
00000692  0000              add [bx+si],al
00000694  0000              add [bx+si],al
00000696  0000              add [bx+si],al
00000698  0000              add [bx+si],al
0000069A  0000              add [bx+si],al
0000069C  0000              add [bx+si],al
0000069E  0000              add [bx+si],al
000006A0  0000              add [bx+si],al
000006A2  0000              add [bx+si],al
000006A4  0000              add [bx+si],al
000006A6  0000              add [bx+si],al
000006A8  0000              add [bx+si],al
000006AA  0000              add [bx+si],al
000006AC  0000              add [bx+si],al
000006AE  0000              add [bx+si],al
000006B0  0000              add [bx+si],al
000006B2  0000              add [bx+si],al
000006B4  0000              add [bx+si],al
000006B6  0000              add [bx+si],al
000006B8  0000              add [bx+si],al
000006BA  0000              add [bx+si],al
000006BC  0000              add [bx+si],al
000006BE  0000              add [bx+si],al
000006C0  0000              add [bx+si],al
000006C2  0000              add [bx+si],al
000006C4  0000              add [bx+si],al
000006C6  0000              add [bx+si],al
000006C8  0000              add [bx+si],al
000006CA  0000              add [bx+si],al
000006CC  0000              add [bx+si],al
000006CE  0000              add [bx+si],al
000006D0  0000              add [bx+si],al
000006D2  0000              add [bx+si],al
000006D4  0000              add [bx+si],al
000006D6  0000              add [bx+si],al
000006D8  0000              add [bx+si],al
000006DA  0000              add [bx+si],al
000006DC  0000              add [bx+si],al
000006DE  0000              add [bx+si],al
000006E0  0000              add [bx+si],al
000006E2  0000              add [bx+si],al
000006E4  0000              add [bx+si],al
000006E6  0000              add [bx+si],al
000006E8  0000              add [bx+si],al
000006EA  0000              add [bx+si],al
000006EC  0000              add [bx+si],al
000006EE  0000              add [bx+si],al
000006F0  0000              add [bx+si],al
000006F2  0000              add [bx+si],al
000006F4  0000              add [bx+si],al
000006F6  0000              add [bx+si],al
000006F8  0000              add [bx+si],al
000006FA  0000              add [bx+si],al
000006FC  0000              add [bx+si],al
000006FE  0000              add [bx+si],al
00000700  0000              add [bx+si],al
00000702  0000              add [bx+si],al
00000704  0000              add [bx+si],al
00000706  0000              add [bx+si],al
00000708  0000              add [bx+si],al
0000070A  0000              add [bx+si],al
0000070C  0000              add [bx+si],al
0000070E  0000              add [bx+si],al
00000710  0000              add [bx+si],al
00000712  0000              add [bx+si],al
00000714  0000              add [bx+si],al
00000716  0000              add [bx+si],al
00000718  0000              add [bx+si],al
0000071A  0000              add [bx+si],al
0000071C  0000              add [bx+si],al
0000071E  0000              add [bx+si],al
00000720  0000              add [bx+si],al
00000722  0000              add [bx+si],al
00000724  0000              add [bx+si],al
00000726  0000              add [bx+si],al
00000728  0000              add [bx+si],al
0000072A  0000              add [bx+si],al
0000072C  0000              add [bx+si],al
0000072E  0000              add [bx+si],al
00000730  0000              add [bx+si],al
00000732  0000              add [bx+si],al
00000734  0000              add [bx+si],al
00000736  0000              add [bx+si],al
00000738  0000              add [bx+si],al
0000073A  0000              add [bx+si],al
0000073C  0000              add [bx+si],al
0000073E  0000              add [bx+si],al
00000740  0000              add [bx+si],al
00000742  0000              add [bx+si],al
00000744  0000              add [bx+si],al
00000746  0000              add [bx+si],al
00000748  0000              add [bx+si],al
0000074A  0000              add [bx+si],al
0000074C  0000              add [bx+si],al
0000074E  0000              add [bx+si],al
00000750  0000              add [bx+si],al
00000752  0000              add [bx+si],al
00000754  0000              add [bx+si],al
00000756  0000              add [bx+si],al
00000758  0000              add [bx+si],al
0000075A  0000              add [bx+si],al
0000075C  0000              add [bx+si],al
0000075E  0000              add [bx+si],al
00000760  0000              add [bx+si],al
00000762  0000              add [bx+si],al
00000764  0000              add [bx+si],al
00000766  0000              add [bx+si],al
00000768  0000              add [bx+si],al
0000076A  0000              add [bx+si],al
0000076C  0000              add [bx+si],al
0000076E  0000              add [bx+si],al
00000770  0000              add [bx+si],al
00000772  0000              add [bx+si],al
00000774  0000              add [bx+si],al
00000776  0000              add [bx+si],al
00000778  0000              add [bx+si],al
0000077A  0000              add [bx+si],al
0000077C  0000              add [bx+si],al
0000077E  0000              add [bx+si],al
00000780  0000              add [bx+si],al
00000782  0000              add [bx+si],al
00000784  0000              add [bx+si],al
00000786  0000              add [bx+si],al
00000788  0000              add [bx+si],al
0000078A  0000              add [bx+si],al
0000078C  0000              add [bx+si],al
0000078E  0000              add [bx+si],al
00000790  0000              add [bx+si],al
00000792  0000              add [bx+si],al
00000794  0000              add [bx+si],al
00000796  0000              add [bx+si],al
00000798  0000              add [bx+si],al
0000079A  0000              add [bx+si],al
0000079C  0000              add [bx+si],al
0000079E  0000              add [bx+si],al
000007A0  0000              add [bx+si],al
000007A2  0000              add [bx+si],al
000007A4  0000              add [bx+si],al
000007A6  0000              add [bx+si],al
000007A8  0000              add [bx+si],al
000007AA  0000              add [bx+si],al
000007AC  0000              add [bx+si],al
000007AE  0000              add [bx+si],al
000007B0  0000              add [bx+si],al
000007B2  0000              add [bx+si],al
000007B4  0000              add [bx+si],al
000007B6  0000              add [bx+si],al
000007B8  0000              add [bx+si],al
000007BA  0000              add [bx+si],al
000007BC  0000              add [bx+si],al
000007BE  0000              add [bx+si],al
000007C0  0000              add [bx+si],al
000007C2  0000              add [bx+si],al
000007C4  0000              add [bx+si],al
000007C6  0000              add [bx+si],al
000007C8  0000              add [bx+si],al
000007CA  0000              add [bx+si],al
000007CC  0000              add [bx+si],al
000007CE  0000              add [bx+si],al
000007D0  0000              add [bx+si],al
000007D2  0000              add [bx+si],al
000007D4  0000              add [bx+si],al
000007D6  0000              add [bx+si],al
000007D8  0000              add [bx+si],al
000007DA  0000              add [bx+si],al
000007DC  0000              add [bx+si],al
000007DE  0000              add [bx+si],al
000007E0  0000              add [bx+si],al
000007E2  0000              add [bx+si],al
000007E4  0000              add [bx+si],al
000007E6  0000              add [bx+si],al
000007E8  0000              add [bx+si],al
000007EA  0000              add [bx+si],al
000007EC  0000              add [bx+si],al
000007EE  0000              add [bx+si],al
000007F0  0000              add [bx+si],al
000007F2  0000              add [bx+si],al
000007F4  0000              add [bx+si],al
000007F6  0000              add [bx+si],al
000007F8  0000              add [bx+si],al
000007FA  0000              add [bx+si],al
000007FC  0000              add [bx+si],al
000007FE  0000              add [bx+si],al
00000800  0000              add [bx+si],al
00000802  0000              add [bx+si],al
00000804  0000              add [bx+si],al
00000806  0000              add [bx+si],al
00000808  0000              add [bx+si],al
0000080A  0000              add [bx+si],al
0000080C  0000              add [bx+si],al
0000080E  0000              add [bx+si],al
00000810  0000              add [bx+si],al
00000812  0000              add [bx+si],al
00000814  0000              add [bx+si],al
00000816  0000              add [bx+si],al
00000818  0000              add [bx+si],al
0000081A  0000              add [bx+si],al
0000081C  0000              add [bx+si],al
0000081E  0000              add [bx+si],al
00000820  0000              add [bx+si],al
00000822  0000              add [bx+si],al
00000824  0000              add [bx+si],al
00000826  0000              add [bx+si],al
00000828  0000              add [bx+si],al
0000082A  0000              add [bx+si],al
0000082C  0000              add [bx+si],al
0000082E  0000              add [bx+si],al
00000830  0000              add [bx+si],al
00000832  0000              add [bx+si],al
00000834  0000              add [bx+si],al
00000836  0000              add [bx+si],al
00000838  0000              add [bx+si],al
0000083A  0000              add [bx+si],al
0000083C  0000              add [bx+si],al
0000083E  0000              add [bx+si],al
00000840  0000              add [bx+si],al
00000842  0000              add [bx+si],al
00000844  0000              add [bx+si],al
00000846  0000              add [bx+si],al
00000848  0000              add [bx+si],al
0000084A  0000              add [bx+si],al
0000084C  0000              add [bx+si],al
0000084E  0000              add [bx+si],al
00000850  0000              add [bx+si],al
00000852  0000              add [bx+si],al
00000854  0000              add [bx+si],al
00000856  0000              add [bx+si],al
00000858  0000              add [bx+si],al
0000085A  0000              add [bx+si],al
0000085C  0000              add [bx+si],al
0000085E  0000              add [bx+si],al
00000860  0000              add [bx+si],al
00000862  0000              add [bx+si],al
00000864  0000              add [bx+si],al
00000866  0000              add [bx+si],al
00000868  0000              add [bx+si],al
0000086A  0000              add [bx+si],al
0000086C  0000              add [bx+si],al
0000086E  0000              add [bx+si],al
00000870  0000              add [bx+si],al
00000872  0000              add [bx+si],al
00000874  0000              add [bx+si],al
00000876  0000              add [bx+si],al
00000878  0000              add [bx+si],al
0000087A  0000              add [bx+si],al
0000087C  0000              add [bx+si],al
0000087E  0000              add [bx+si],al
00000880  0000              add [bx+si],al
00000882  0000              add [bx+si],al
00000884  0000              add [bx+si],al
00000886  0000              add [bx+si],al
00000888  0000              add [bx+si],al
0000088A  0000              add [bx+si],al
0000088C  0000              add [bx+si],al
0000088E  0000              add [bx+si],al
00000890  0000              add [bx+si],al
00000892  0000              add [bx+si],al
00000894  0000              add [bx+si],al
00000896  0000              add [bx+si],al
00000898  0000              add [bx+si],al
0000089A  0000              add [bx+si],al
0000089C  0000              add [bx+si],al
0000089E  0000              add [bx+si],al
000008A0  0000              add [bx+si],al
000008A2  0000              add [bx+si],al
000008A4  0000              add [bx+si],al
000008A6  0000              add [bx+si],al
000008A8  0000              add [bx+si],al
000008AA  0000              add [bx+si],al
000008AC  0000              add [bx+si],al
000008AE  0000              add [bx+si],al
000008B0  0000              add [bx+si],al
000008B2  0000              add [bx+si],al
000008B4  0000              add [bx+si],al
000008B6  0000              add [bx+si],al
000008B8  0000              add [bx+si],al
000008BA  0000              add [bx+si],al
000008BC  0000              add [bx+si],al
000008BE  0000              add [bx+si],al
000008C0  0000              add [bx+si],al
000008C2  0000              add [bx+si],al
000008C4  0000              add [bx+si],al
000008C6  0000              add [bx+si],al
000008C8  0000              add [bx+si],al
000008CA  0000              add [bx+si],al
000008CC  0000              add [bx+si],al
000008CE  0000              add [bx+si],al
000008D0  0000              add [bx+si],al
000008D2  0000              add [bx+si],al
000008D4  0000              add [bx+si],al
000008D6  0000              add [bx+si],al
000008D8  0000              add [bx+si],al
000008DA  0000              add [bx+si],al
000008DC  0000              add [bx+si],al
000008DE  0000              add [bx+si],al
000008E0  0000              add [bx+si],al
000008E2  0000              add [bx+si],al
000008E4  0000              add [bx+si],al
000008E6  0000              add [bx+si],al
000008E8  0000              add [bx+si],al
000008EA  0000              add [bx+si],al
000008EC  0000              add [bx+si],al
000008EE  0000              add [bx+si],al
000008F0  0000              add [bx+si],al
000008F2  0000              add [bx+si],al
000008F4  0000              add [bx+si],al
000008F6  0000              add [bx+si],al
000008F8  0000              add [bx+si],al
000008FA  0000              add [bx+si],al
000008FC  0000              add [bx+si],al
000008FE  0000              add [bx+si],al
00000900  0000              add [bx+si],al
00000902  0000              add [bx+si],al
00000904  0000              add [bx+si],al
00000906  0000              add [bx+si],al
00000908  0000              add [bx+si],al
0000090A  0000              add [bx+si],al
0000090C  0000              add [bx+si],al
0000090E  0000              add [bx+si],al
00000910  0000              add [bx+si],al
00000912  0000              add [bx+si],al
00000914  0000              add [bx+si],al
00000916  0000              add [bx+si],al
00000918  0000              add [bx+si],al
0000091A  0000              add [bx+si],al
0000091C  0000              add [bx+si],al
0000091E  0000              add [bx+si],al
00000920  0000              add [bx+si],al
00000922  0000              add [bx+si],al
00000924  0000              add [bx+si],al
00000926  0000              add [bx+si],al
00000928  0000              add [bx+si],al
0000092A  0000              add [bx+si],al
0000092C  0000              add [bx+si],al
0000092E  0000              add [bx+si],al
00000930  0000              add [bx+si],al
00000932  0000              add [bx+si],al
00000934  0000              add [bx+si],al
00000936  0000              add [bx+si],al
00000938  0000              add [bx+si],al
0000093A  0000              add [bx+si],al
0000093C  0000              add [bx+si],al
0000093E  0000              add [bx+si],al
00000940  0000              add [bx+si],al
00000942  0000              add [bx+si],al
00000944  0000              add [bx+si],al
00000946  0000              add [bx+si],al
00000948  0000              add [bx+si],al
0000094A  0000              add [bx+si],al
0000094C  0000              add [bx+si],al
0000094E  0000              add [bx+si],al
00000950  0000              add [bx+si],al
00000952  0000              add [bx+si],al
00000954  0000              add [bx+si],al
00000956  0000              add [bx+si],al
00000958  0000              add [bx+si],al
0000095A  0000              add [bx+si],al
0000095C  0000              add [bx+si],al
0000095E  0000              add [bx+si],al
00000960  0000              add [bx+si],al
00000962  0000              add [bx+si],al
00000964  0000              add [bx+si],al
00000966  0000              add [bx+si],al
00000968  0000              add [bx+si],al
0000096A  0000              add [bx+si],al
0000096C  0000              add [bx+si],al
0000096E  0000              add [bx+si],al
00000970  0000              add [bx+si],al
00000972  0000              add [bx+si],al
00000974  0000              add [bx+si],al
00000976  0000              add [bx+si],al
00000978  0000              add [bx+si],al
0000097A  0000              add [bx+si],al
0000097C  0000              add [bx+si],al
0000097E  0000              add [bx+si],al
00000980  0000              add [bx+si],al
00000982  0000              add [bx+si],al
00000984  0000              add [bx+si],al
00000986  0000              add [bx+si],al
00000988  0000              add [bx+si],al
0000098A  0000              add [bx+si],al
0000098C  0000              add [bx+si],al
0000098E  0000              add [bx+si],al
00000990  0000              add [bx+si],al
00000992  0000              add [bx+si],al
00000994  0000              add [bx+si],al
00000996  0000              add [bx+si],al
00000998  0000              add [bx+si],al
0000099A  0000              add [bx+si],al
0000099C  0000              add [bx+si],al
0000099E  0000              add [bx+si],al
000009A0  0000              add [bx+si],al
000009A2  0000              add [bx+si],al
000009A4  0000              add [bx+si],al
000009A6  0000              add [bx+si],al
000009A8  0000              add [bx+si],al
000009AA  0000              add [bx+si],al
000009AC  0000              add [bx+si],al
000009AE  0000              add [bx+si],al
000009B0  0000              add [bx+si],al
000009B2  0000              add [bx+si],al
000009B4  0000              add [bx+si],al
000009B6  0000              add [bx+si],al
000009B8  0000              add [bx+si],al
000009BA  0000              add [bx+si],al
000009BC  0000              add [bx+si],al
000009BE  0000              add [bx+si],al
000009C0  0000              add [bx+si],al
000009C2  0000              add [bx+si],al
000009C4  0000              add [bx+si],al
000009C6  0000              add [bx+si],al
000009C8  0000              add [bx+si],al
000009CA  0000              add [bx+si],al
000009CC  0000              add [bx+si],al
000009CE  0000              add [bx+si],al
000009D0  0000              add [bx+si],al
000009D2  0000              add [bx+si],al
000009D4  0000              add [bx+si],al
000009D6  0000              add [bx+si],al
000009D8  0000              add [bx+si],al
000009DA  0000              add [bx+si],al
000009DC  0000              add [bx+si],al
000009DE  0000              add [bx+si],al
000009E0  0000              add [bx+si],al
000009E2  0000              add [bx+si],al
000009E4  0000              add [bx+si],al
000009E6  0000              add [bx+si],al
000009E8  0000              add [bx+si],al
000009EA  0000              add [bx+si],al
000009EC  0000              add [bx+si],al
000009EE  0000              add [bx+si],al
000009F0  0000              add [bx+si],al
000009F2  0000              add [bx+si],al
000009F4  0000              add [bx+si],al
000009F6  0000              add [bx+si],al
000009F8  0000              add [bx+si],al
000009FA  0000              add [bx+si],al
000009FC  0000              add [bx+si],al
000009FE  0000              add [bx+si],al
00000A00  0000              add [bx+si],al
00000A02  0000              add [bx+si],al
00000A04  0000              add [bx+si],al
00000A06  0000              add [bx+si],al
00000A08  0000              add [bx+si],al
00000A0A  0000              add [bx+si],al
00000A0C  0000              add [bx+si],al
00000A0E  0000              add [bx+si],al
00000A10  0000              add [bx+si],al
00000A12  0000              add [bx+si],al
00000A14  0000              add [bx+si],al
00000A16  0000              add [bx+si],al
00000A18  0000              add [bx+si],al
00000A1A  0000              add [bx+si],al
00000A1C  0000              add [bx+si],al
00000A1E  0000              add [bx+si],al
00000A20  0000              add [bx+si],al
00000A22  0000              add [bx+si],al
00000A24  0000              add [bx+si],al
00000A26  0000              add [bx+si],al
00000A28  0000              add [bx+si],al
00000A2A  0000              add [bx+si],al
00000A2C  0000              add [bx+si],al
00000A2E  0000              add [bx+si],al
00000A30  0000              add [bx+si],al
00000A32  0000              add [bx+si],al
00000A34  0000              add [bx+si],al
00000A36  0000              add [bx+si],al
00000A38  0000              add [bx+si],al
00000A3A  0000              add [bx+si],al
00000A3C  0000              add [bx+si],al
00000A3E  0000              add [bx+si],al
00000A40  0000              add [bx+si],al
00000A42  0000              add [bx+si],al
00000A44  0000              add [bx+si],al
00000A46  0000              add [bx+si],al
00000A48  0000              add [bx+si],al
00000A4A  0000              add [bx+si],al
00000A4C  0000              add [bx+si],al
00000A4E  0000              add [bx+si],al
00000A50  0000              add [bx+si],al
00000A52  0000              add [bx+si],al
00000A54  0000              add [bx+si],al
00000A56  0000              add [bx+si],al
00000A58  0000              add [bx+si],al
00000A5A  0000              add [bx+si],al
00000A5C  0000              add [bx+si],al
00000A5E  0000              add [bx+si],al
00000A60  0000              add [bx+si],al
00000A62  0000              add [bx+si],al
00000A64  0000              add [bx+si],al
00000A66  0000              add [bx+si],al
00000A68  0000              add [bx+si],al
00000A6A  0000              add [bx+si],al
00000A6C  0000              add [bx+si],al
00000A6E  0000              add [bx+si],al
00000A70  0000              add [bx+si],al
00000A72  0000              add [bx+si],al
00000A74  0000              add [bx+si],al
00000A76  0000              add [bx+si],al
00000A78  0000              add [bx+si],al
00000A7A  0000              add [bx+si],al
00000A7C  0000              add [bx+si],al
00000A7E  0000              add [bx+si],al
00000A80  0000              add [bx+si],al
00000A82  0000              add [bx+si],al
00000A84  0000              add [bx+si],al
00000A86  0000              add [bx+si],al
00000A88  0000              add [bx+si],al
00000A8A  0000              add [bx+si],al
00000A8C  0000              add [bx+si],al
00000A8E  0000              add [bx+si],al
00000A90  0000              add [bx+si],al
00000A92  0000              add [bx+si],al
00000A94  0000              add [bx+si],al
00000A96  0000              add [bx+si],al
00000A98  0000              add [bx+si],al
00000A9A  0000              add [bx+si],al
00000A9C  0000              add [bx+si],al
00000A9E  0000              add [bx+si],al
00000AA0  0000              add [bx+si],al
00000AA2  0000              add [bx+si],al
00000AA4  0000              add [bx+si],al
00000AA6  0000              add [bx+si],al
00000AA8  0000              add [bx+si],al
00000AAA  0000              add [bx+si],al
00000AAC  0000              add [bx+si],al
00000AAE  0000              add [bx+si],al
00000AB0  0000              add [bx+si],al
00000AB2  0000              add [bx+si],al
00000AB4  0000              add [bx+si],al
00000AB6  0000              add [bx+si],al
00000AB8  0000              add [bx+si],al
00000ABA  0000              add [bx+si],al
00000ABC  0000              add [bx+si],al
00000ABE  0000              add [bx+si],al
00000AC0  0000              add [bx+si],al
00000AC2  0000              add [bx+si],al
00000AC4  0000              add [bx+si],al
00000AC6  0000              add [bx+si],al
00000AC8  0000              add [bx+si],al
00000ACA  0000              add [bx+si],al
00000ACC  0000              add [bx+si],al
00000ACE  0000              add [bx+si],al
00000AD0  0000              add [bx+si],al
00000AD2  0000              add [bx+si],al
00000AD4  0000              add [bx+si],al
00000AD6  0000              add [bx+si],al
00000AD8  0000              add [bx+si],al
00000ADA  0000              add [bx+si],al
00000ADC  0000              add [bx+si],al
00000ADE  0000              add [bx+si],al
00000AE0  0000              add [bx+si],al
00000AE2  0000              add [bx+si],al
00000AE4  0000              add [bx+si],al
00000AE6  0000              add [bx+si],al
00000AE8  0000              add [bx+si],al
00000AEA  0000              add [bx+si],al
00000AEC  0000              add [bx+si],al
00000AEE  0000              add [bx+si],al
00000AF0  0000              add [bx+si],al
00000AF2  0000              add [bx+si],al
00000AF4  0000              add [bx+si],al
00000AF6  0000              add [bx+si],al
00000AF8  0000              add [bx+si],al
00000AFA  0000              add [bx+si],al
00000AFC  0000              add [bx+si],al
00000AFE  0000              add [bx+si],al
00000B00  0000              add [bx+si],al
00000B02  0000              add [bx+si],al
00000B04  0000              add [bx+si],al
00000B06  0000              add [bx+si],al
00000B08  0000              add [bx+si],al
00000B0A  0000              add [bx+si],al
00000B0C  0000              add [bx+si],al
00000B0E  0000              add [bx+si],al
00000B10  0000              add [bx+si],al
00000B12  0000              add [bx+si],al
00000B14  0000              add [bx+si],al
00000B16  0000              add [bx+si],al
00000B18  0000              add [bx+si],al
00000B1A  0000              add [bx+si],al
00000B1C  0000              add [bx+si],al
00000B1E  0000              add [bx+si],al
00000B20  0000              add [bx+si],al
00000B22  0000              add [bx+si],al
00000B24  0000              add [bx+si],al
00000B26  0000              add [bx+si],al
00000B28  0000              add [bx+si],al
00000B2A  0000              add [bx+si],al
00000B2C  0000              add [bx+si],al
00000B2E  0000              add [bx+si],al
00000B30  0000              add [bx+si],al
00000B32  0000              add [bx+si],al
00000B34  0000              add [bx+si],al
00000B36  0000              add [bx+si],al
00000B38  0000              add [bx+si],al
00000B3A  0000              add [bx+si],al
00000B3C  0000              add [bx+si],al
00000B3E  0000              add [bx+si],al
00000B40  0000              add [bx+si],al
00000B42  0000              add [bx+si],al
00000B44  0000              add [bx+si],al
00000B46  0000              add [bx+si],al
00000B48  0000              add [bx+si],al
00000B4A  0000              add [bx+si],al
00000B4C  0000              add [bx+si],al
00000B4E  0000              add [bx+si],al
00000B50  0000              add [bx+si],al
00000B52  0000              add [bx+si],al
00000B54  0000              add [bx+si],al
00000B56  0000              add [bx+si],al
00000B58  0000              add [bx+si],al
00000B5A  0000              add [bx+si],al
00000B5C  0000              add [bx+si],al
00000B5E  0000              add [bx+si],al
00000B60  0000              add [bx+si],al
00000B62  0000              add [bx+si],al
00000B64  0000              add [bx+si],al
00000B66  0000              add [bx+si],al
00000B68  0000              add [bx+si],al
00000B6A  0000              add [bx+si],al
00000B6C  0000              add [bx+si],al
00000B6E  0000              add [bx+si],al
00000B70  0000              add [bx+si],al
00000B72  0000              add [bx+si],al
00000B74  0000              add [bx+si],al
00000B76  0000              add [bx+si],al
00000B78  0000              add [bx+si],al
00000B7A  0000              add [bx+si],al
00000B7C  0000              add [bx+si],al
00000B7E  0000              add [bx+si],al
00000B80  0000              add [bx+si],al
00000B82  0000              add [bx+si],al
00000B84  0000              add [bx+si],al
00000B86  0000              add [bx+si],al
00000B88  0000              add [bx+si],al
00000B8A  0000              add [bx+si],al
00000B8C  0000              add [bx+si],al
00000B8E  0000              add [bx+si],al
00000B90  0000              add [bx+si],al
00000B92  0000              add [bx+si],al
00000B94  0000              add [bx+si],al
00000B96  0000              add [bx+si],al
00000B98  0000              add [bx+si],al
00000B9A  0000              add [bx+si],al
00000B9C  0000              add [bx+si],al
00000B9E  0000              add [bx+si],al
00000BA0  0000              add [bx+si],al
00000BA2  0000              add [bx+si],al
00000BA4  0000              add [bx+si],al
00000BA6  0000              add [bx+si],al
00000BA8  0000              add [bx+si],al
00000BAA  0000              add [bx+si],al
00000BAC  0000              add [bx+si],al
00000BAE  0000              add [bx+si],al
00000BB0  0000              add [bx+si],al
00000BB2  0000              add [bx+si],al
00000BB4  0000              add [bx+si],al
00000BB6  0000              add [bx+si],al
00000BB8  0000              add [bx+si],al
00000BBA  0000              add [bx+si],al
00000BBC  0000              add [bx+si],al
00000BBE  0000              add [bx+si],al
00000BC0  0000              add [bx+si],al
00000BC2  0000              add [bx+si],al
00000BC4  0000              add [bx+si],al
00000BC6  0000              add [bx+si],al
00000BC8  0000              add [bx+si],al
00000BCA  0000              add [bx+si],al
00000BCC  0000              add [bx+si],al
00000BCE  0000              add [bx+si],al
00000BD0  0000              add [bx+si],al
00000BD2  0000              add [bx+si],al
00000BD4  0000              add [bx+si],al
00000BD6  0000              add [bx+si],al
00000BD8  0000              add [bx+si],al
00000BDA  0000              add [bx+si],al
00000BDC  0000              add [bx+si],al
00000BDE  0000              add [bx+si],al
00000BE0  0000              add [bx+si],al
00000BE2  0000              add [bx+si],al
00000BE4  0000              add [bx+si],al
00000BE6  0000              add [bx+si],al
00000BE8  0000              add [bx+si],al
00000BEA  0000              add [bx+si],al
00000BEC  0000              add [bx+si],al
00000BEE  0000              add [bx+si],al
00000BF0  0000              add [bx+si],al
00000BF2  0000              add [bx+si],al
00000BF4  0000              add [bx+si],al
00000BF6  0000              add [bx+si],al
00000BF8  0000              add [bx+si],al
00000BFA  0000              add [bx+si],al
00000BFC  0000              add [bx+si],al
00000BFE  0000              add [bx+si],al
00000C00  0000              add [bx+si],al
00000C02  0000              add [bx+si],al
00000C04  0000              add [bx+si],al
00000C06  0000              add [bx+si],al
00000C08  0000              add [bx+si],al
00000C0A  0000              add [bx+si],al
00000C0C  0000              add [bx+si],al
00000C0E  0000              add [bx+si],al
00000C10  0000              add [bx+si],al
00000C12  0000              add [bx+si],al
00000C14  0000              add [bx+si],al
00000C16  0000              add [bx+si],al
00000C18  0000              add [bx+si],al
00000C1A  0000              add [bx+si],al
00000C1C  0000              add [bx+si],al
00000C1E  0000              add [bx+si],al
00000C20  0000              add [bx+si],al
00000C22  0000              add [bx+si],al
00000C24  0000              add [bx+si],al
00000C26  0000              add [bx+si],al
00000C28  0000              add [bx+si],al
00000C2A  0000              add [bx+si],al
00000C2C  0000              add [bx+si],al
00000C2E  0000              add [bx+si],al
00000C30  0000              add [bx+si],al
00000C32  0000              add [bx+si],al
00000C34  0000              add [bx+si],al
00000C36  0000              add [bx+si],al
00000C38  0000              add [bx+si],al
00000C3A  0000              add [bx+si],al
00000C3C  0000              add [bx+si],al
00000C3E  0000              add [bx+si],al
00000C40  0000              add [bx+si],al
00000C42  0000              add [bx+si],al
00000C44  0000              add [bx+si],al
00000C46  0000              add [bx+si],al
00000C48  0000              add [bx+si],al
00000C4A  0000              add [bx+si],al
00000C4C  0000              add [bx+si],al
00000C4E  0000              add [bx+si],al
00000C50  0000              add [bx+si],al
00000C52  0000              add [bx+si],al
00000C54  0000              add [bx+si],al
00000C56  0000              add [bx+si],al
00000C58  0000              add [bx+si],al
00000C5A  0000              add [bx+si],al
00000C5C  0000              add [bx+si],al
00000C5E  0000              add [bx+si],al
00000C60  0000              add [bx+si],al
00000C62  0000              add [bx+si],al
00000C64  0000              add [bx+si],al
00000C66  0000              add [bx+si],al
00000C68  0000              add [bx+si],al
00000C6A  0000              add [bx+si],al
00000C6C  0000              add [bx+si],al
00000C6E  0000              add [bx+si],al
00000C70  0000              add [bx+si],al
00000C72  0000              add [bx+si],al
00000C74  0000              add [bx+si],al
00000C76  0000              add [bx+si],al
00000C78  0000              add [bx+si],al
00000C7A  0000              add [bx+si],al
00000C7C  0000              add [bx+si],al
00000C7E  0000              add [bx+si],al
00000C80  0000              add [bx+si],al
00000C82  0000              add [bx+si],al
00000C84  0000              add [bx+si],al
00000C86  0000              add [bx+si],al
00000C88  0000              add [bx+si],al
00000C8A  0000              add [bx+si],al
00000C8C  0000              add [bx+si],al
00000C8E  0000              add [bx+si],al
00000C90  0000              add [bx+si],al
00000C92  0000              add [bx+si],al
00000C94  0000              add [bx+si],al
00000C96  0000              add [bx+si],al
00000C98  0000              add [bx+si],al
00000C9A  0000              add [bx+si],al
00000C9C  0000              add [bx+si],al
00000C9E  0000              add [bx+si],al
00000CA0  0000              add [bx+si],al
00000CA2  0000              add [bx+si],al
00000CA4  0000              add [bx+si],al
00000CA6  0000              add [bx+si],al
00000CA8  0000              add [bx+si],al
00000CAA  0000              add [bx+si],al
00000CAC  0000              add [bx+si],al
00000CAE  0000              add [bx+si],al
00000CB0  0000              add [bx+si],al
00000CB2  0000              add [bx+si],al
00000CB4  0000              add [bx+si],al
00000CB6  0000              add [bx+si],al
00000CB8  0000              add [bx+si],al
00000CBA  0000              add [bx+si],al
00000CBC  0000              add [bx+si],al
00000CBE  0000              add [bx+si],al
00000CC0  0000              add [bx+si],al
00000CC2  0000              add [bx+si],al
00000CC4  0000              add [bx+si],al
00000CC6  0000              add [bx+si],al
00000CC8  0000              add [bx+si],al
00000CCA  0000              add [bx+si],al
00000CCC  0000              add [bx+si],al
00000CCE  0000              add [bx+si],al
00000CD0  0000              add [bx+si],al
00000CD2  0000              add [bx+si],al
00000CD4  0000              add [bx+si],al
00000CD6  0000              add [bx+si],al
00000CD8  0000              add [bx+si],al
00000CDA  0000              add [bx+si],al
00000CDC  0000              add [bx+si],al
00000CDE  0000              add [bx+si],al
00000CE0  0000              add [bx+si],al
00000CE2  0000              add [bx+si],al
00000CE4  0000              add [bx+si],al
00000CE6  0000              add [bx+si],al
00000CE8  0000              add [bx+si],al
00000CEA  0000              add [bx+si],al
00000CEC  0000              add [bx+si],al
00000CEE  0000              add [bx+si],al
00000CF0  0000              add [bx+si],al
00000CF2  0000              add [bx+si],al
00000CF4  0000              add [bx+si],al
00000CF6  0000              add [bx+si],al
00000CF8  0000              add [bx+si],al
00000CFA  0000              add [bx+si],al
00000CFC  0000              add [bx+si],al
00000CFE  0000              add [bx+si],al
00000D00  0000              add [bx+si],al
00000D02  0000              add [bx+si],al
00000D04  0000              add [bx+si],al
00000D06  0000              add [bx+si],al
00000D08  0000              add [bx+si],al
00000D0A  0000              add [bx+si],al
00000D0C  0000              add [bx+si],al
00000D0E  0000              add [bx+si],al
00000D10  0000              add [bx+si],al
00000D12  0000              add [bx+si],al
00000D14  0000              add [bx+si],al
00000D16  0000              add [bx+si],al
00000D18  0000              add [bx+si],al
00000D1A  0000              add [bx+si],al
00000D1C  0000              add [bx+si],al
00000D1E  0000              add [bx+si],al
00000D20  0000              add [bx+si],al
00000D22  0000              add [bx+si],al
00000D24  0000              add [bx+si],al
00000D26  0000              add [bx+si],al
00000D28  0000              add [bx+si],al
00000D2A  0000              add [bx+si],al
00000D2C  0000              add [bx+si],al
00000D2E  0000              add [bx+si],al
00000D30  0000              add [bx+si],al
00000D32  0000              add [bx+si],al
00000D34  0000              add [bx+si],al
00000D36  0000              add [bx+si],al
00000D38  0000              add [bx+si],al
00000D3A  0000              add [bx+si],al
00000D3C  0000              add [bx+si],al
00000D3E  0000              add [bx+si],al
00000D40  0000              add [bx+si],al
00000D42  0000              add [bx+si],al
00000D44  0000              add [bx+si],al
00000D46  0000              add [bx+si],al
00000D48  0000              add [bx+si],al
00000D4A  0000              add [bx+si],al
00000D4C  0000              add [bx+si],al
00000D4E  0000              add [bx+si],al
00000D50  0000              add [bx+si],al
00000D52  0000              add [bx+si],al
00000D54  0000              add [bx+si],al
00000D56  0000              add [bx+si],al
00000D58  0000              add [bx+si],al
00000D5A  0000              add [bx+si],al
00000D5C  0000              add [bx+si],al
00000D5E  0000              add [bx+si],al
00000D60  0000              add [bx+si],al
00000D62  0000              add [bx+si],al
00000D64  0000              add [bx+si],al
00000D66  0000              add [bx+si],al
00000D68  0000              add [bx+si],al
00000D6A  0000              add [bx+si],al
00000D6C  0000              add [bx+si],al
00000D6E  0000              add [bx+si],al
00000D70  0000              add [bx+si],al
00000D72  0000              add [bx+si],al
00000D74  0000              add [bx+si],al
00000D76  0000              add [bx+si],al
00000D78  0000              add [bx+si],al
00000D7A  0000              add [bx+si],al
00000D7C  0000              add [bx+si],al
00000D7E  0000              add [bx+si],al
00000D80  0000              add [bx+si],al
00000D82  0000              add [bx+si],al
00000D84  0000              add [bx+si],al
00000D86  0000              add [bx+si],al
00000D88  0000              add [bx+si],al
00000D8A  0000              add [bx+si],al
00000D8C  0000              add [bx+si],al
00000D8E  0000              add [bx+si],al
00000D90  0000              add [bx+si],al
00000D92  0000              add [bx+si],al
00000D94  0000              add [bx+si],al
00000D96  0000              add [bx+si],al
00000D98  0000              add [bx+si],al
00000D9A  0000              add [bx+si],al
00000D9C  0000              add [bx+si],al
00000D9E  0000              add [bx+si],al
00000DA0  0000              add [bx+si],al
00000DA2  0000              add [bx+si],al
00000DA4  0000              add [bx+si],al
00000DA6  0000              add [bx+si],al
00000DA8  0000              add [bx+si],al
00000DAA  0000              add [bx+si],al
00000DAC  0000              add [bx+si],al
00000DAE  0000              add [bx+si],al
00000DB0  0000              add [bx+si],al
00000DB2  0000              add [bx+si],al
00000DB4  0000              add [bx+si],al
00000DB6  0000              add [bx+si],al
00000DB8  0000              add [bx+si],al
00000DBA  0000              add [bx+si],al
00000DBC  0000              add [bx+si],al
00000DBE  0000              add [bx+si],al
00000DC0  0000              add [bx+si],al
00000DC2  0000              add [bx+si],al
00000DC4  0000              add [bx+si],al
00000DC6  0000              add [bx+si],al
00000DC8  0000              add [bx+si],al
00000DCA  0000              add [bx+si],al
00000DCC  0000              add [bx+si],al
00000DCE  0000              add [bx+si],al
00000DD0  0000              add [bx+si],al
00000DD2  0000              add [bx+si],al
00000DD4  0000              add [bx+si],al
00000DD6  0000              add [bx+si],al
00000DD8  0000              add [bx+si],al
00000DDA  0000              add [bx+si],al
00000DDC  0000              add [bx+si],al
00000DDE  0000              add [bx+si],al
00000DE0  0000              add [bx+si],al
00000DE2  0000              add [bx+si],al
00000DE4  0000              add [bx+si],al
00000DE6  0000              add [bx+si],al
00000DE8  0000              add [bx+si],al
00000DEA  0000              add [bx+si],al
00000DEC  0000              add [bx+si],al
00000DEE  0000              add [bx+si],al
00000DF0  0000              add [bx+si],al
00000DF2  0000              add [bx+si],al
00000DF4  0000              add [bx+si],al
00000DF6  0000              add [bx+si],al
00000DF8  0000              add [bx+si],al
00000DFA  0000              add [bx+si],al
00000DFC  0000              add [bx+si],al
00000DFE  0000              add [bx+si],al
00000E00  0000              add [bx+si],al
00000E02  0000              add [bx+si],al
00000E04  0000              add [bx+si],al
00000E06  0000              add [bx+si],al
00000E08  0000              add [bx+si],al
00000E0A  0000              add [bx+si],al
00000E0C  0000              add [bx+si],al
00000E0E  0000              add [bx+si],al
00000E10  0000              add [bx+si],al
00000E12  0000              add [bx+si],al
00000E14  0000              add [bx+si],al
00000E16  0000              add [bx+si],al
00000E18  0000              add [bx+si],al
00000E1A  0000              add [bx+si],al
00000E1C  0000              add [bx+si],al
00000E1E  0000              add [bx+si],al
00000E20  0000              add [bx+si],al
00000E22  0000              add [bx+si],al
00000E24  0000              add [bx+si],al
00000E26  0000              add [bx+si],al
00000E28  0000              add [bx+si],al
00000E2A  0000              add [bx+si],al
00000E2C  0000              add [bx+si],al
00000E2E  0000              add [bx+si],al
00000E30  0000              add [bx+si],al
00000E32  0000              add [bx+si],al
00000E34  0000              add [bx+si],al
00000E36  0000              add [bx+si],al
00000E38  0000              add [bx+si],al
00000E3A  0000              add [bx+si],al
00000E3C  0000              add [bx+si],al
00000E3E  0000              add [bx+si],al
00000E40  0000              add [bx+si],al
00000E42  0000              add [bx+si],al
00000E44  0000              add [bx+si],al
00000E46  0000              add [bx+si],al
00000E48  0000              add [bx+si],al
00000E4A  0000              add [bx+si],al
00000E4C  0000              add [bx+si],al
00000E4E  0000              add [bx+si],al
00000E50  0000              add [bx+si],al
00000E52  0000              add [bx+si],al
00000E54  0000              add [bx+si],al
00000E56  0000              add [bx+si],al
00000E58  0000              add [bx+si],al
00000E5A  0000              add [bx+si],al
00000E5C  0000              add [bx+si],al
00000E5E  0000              add [bx+si],al
00000E60  0000              add [bx+si],al
00000E62  0000              add [bx+si],al
00000E64  0000              add [bx+si],al
00000E66  0000              add [bx+si],al
00000E68  0000              add [bx+si],al
00000E6A  0000              add [bx+si],al
00000E6C  0000              add [bx+si],al
00000E6E  0000              add [bx+si],al
00000E70  0000              add [bx+si],al
00000E72  0000              add [bx+si],al
00000E74  0000              add [bx+si],al
00000E76  0000              add [bx+si],al
00000E78  0000              add [bx+si],al
00000E7A  0000              add [bx+si],al
00000E7C  0000              add [bx+si],al
00000E7E  0000              add [bx+si],al
00000E80  0000              add [bx+si],al
00000E82  0000              add [bx+si],al
00000E84  0000              add [bx+si],al
00000E86  0000              add [bx+si],al
00000E88  0000              add [bx+si],al
00000E8A  0000              add [bx+si],al
00000E8C  0000              add [bx+si],al
00000E8E  0000              add [bx+si],al
00000E90  0000              add [bx+si],al
00000E92  0000              add [bx+si],al
00000E94  0000              add [bx+si],al
00000E96  0000              add [bx+si],al
00000E98  0000              add [bx+si],al
00000E9A  0000              add [bx+si],al
00000E9C  0000              add [bx+si],al
00000E9E  0000              add [bx+si],al
00000EA0  0000              add [bx+si],al
00000EA2  0000              add [bx+si],al
00000EA4  0000              add [bx+si],al
00000EA6  0000              add [bx+si],al
00000EA8  0000              add [bx+si],al
00000EAA  0000              add [bx+si],al
00000EAC  0000              add [bx+si],al
00000EAE  0000              add [bx+si],al
00000EB0  0000              add [bx+si],al
00000EB2  0000              add [bx+si],al
00000EB4  0000              add [bx+si],al
00000EB6  0000              add [bx+si],al
00000EB8  0000              add [bx+si],al
00000EBA  0000              add [bx+si],al
00000EBC  0000              add [bx+si],al
00000EBE  0000              add [bx+si],al
00000EC0  0000              add [bx+si],al
00000EC2  0000              add [bx+si],al
00000EC4  0000              add [bx+si],al
00000EC6  0000              add [bx+si],al
00000EC8  0000              add [bx+si],al
00000ECA  0000              add [bx+si],al
00000ECC  0000              add [bx+si],al
00000ECE  0000              add [bx+si],al
00000ED0  0000              add [bx+si],al
00000ED2  0000              add [bx+si],al
00000ED4  0000              add [bx+si],al
00000ED6  0000              add [bx+si],al
00000ED8  0000              add [bx+si],al
00000EDA  0000              add [bx+si],al
00000EDC  0000              add [bx+si],al
00000EDE  0000              add [bx+si],al
00000EE0  0000              add [bx+si],al
00000EE2  0000              add [bx+si],al
00000EE4  0000              add [bx+si],al
00000EE6  0000              add [bx+si],al
00000EE8  0000              add [bx+si],al
00000EEA  0000              add [bx+si],al
00000EEC  0000              add [bx+si],al
00000EEE  0000              add [bx+si],al
00000EF0  0000              add [bx+si],al
00000EF2  0000              add [bx+si],al
00000EF4  0000              add [bx+si],al
00000EF6  0000              add [bx+si],al
00000EF8  0000              add [bx+si],al
00000EFA  0000              add [bx+si],al
00000EFC  0000              add [bx+si],al
00000EFE  0000              add [bx+si],al
00000F00  0000              add [bx+si],al
00000F02  0000              add [bx+si],al
00000F04  0000              add [bx+si],al
00000F06  0000              add [bx+si],al
00000F08  0000              add [bx+si],al
00000F0A  0000              add [bx+si],al
00000F0C  0000              add [bx+si],al
00000F0E  0000              add [bx+si],al
00000F10  0000              add [bx+si],al
00000F12  0000              add [bx+si],al
00000F14  0000              add [bx+si],al
00000F16  0000              add [bx+si],al
00000F18  0000              add [bx+si],al
00000F1A  0000              add [bx+si],al
00000F1C  0000              add [bx+si],al
00000F1E  0000              add [bx+si],al
00000F20  0000              add [bx+si],al
00000F22  0000              add [bx+si],al
00000F24  0000              add [bx+si],al
00000F26  0000              add [bx+si],al
00000F28  0000              add [bx+si],al
00000F2A  0000              add [bx+si],al
00000F2C  0000              add [bx+si],al
00000F2E  0000              add [bx+si],al
00000F30  0000              add [bx+si],al
00000F32  0000              add [bx+si],al
00000F34  0000              add [bx+si],al
00000F36  0000              add [bx+si],al
00000F38  0000              add [bx+si],al
00000F3A  0000              add [bx+si],al
00000F3C  0000              add [bx+si],al
00000F3E  0000              add [bx+si],al
00000F40  0000              add [bx+si],al
00000F42  0000              add [bx+si],al
00000F44  0000              add [bx+si],al
00000F46  0000              add [bx+si],al
00000F48  0000              add [bx+si],al
00000F4A  0000              add [bx+si],al
00000F4C  0000              add [bx+si],al
00000F4E  0000              add [bx+si],al
00000F50  0000              add [bx+si],al
00000F52  0000              add [bx+si],al
00000F54  0000              add [bx+si],al
00000F56  0000              add [bx+si],al
00000F58  0000              add [bx+si],al
00000F5A  0000              add [bx+si],al
00000F5C  0000              add [bx+si],al
00000F5E  0000              add [bx+si],al
00000F60  0000              add [bx+si],al
00000F62  0000              add [bx+si],al
00000F64  0000              add [bx+si],al
00000F66  0000              add [bx+si],al
00000F68  0000              add [bx+si],al
00000F6A  0000              add [bx+si],al
00000F6C  0000              add [bx+si],al
00000F6E  0000              add [bx+si],al
00000F70  0000              add [bx+si],al
00000F72  0000              add [bx+si],al
00000F74  0000              add [bx+si],al
00000F76  0000              add [bx+si],al
00000F78  0000              add [bx+si],al
00000F7A  0000              add [bx+si],al
00000F7C  0000              add [bx+si],al
00000F7E  0000              add [bx+si],al
00000F80  0000              add [bx+si],al
00000F82  0000              add [bx+si],al
00000F84  0000              add [bx+si],al
00000F86  0000              add [bx+si],al
00000F88  0000              add [bx+si],al
00000F8A  0000              add [bx+si],al
00000F8C  0000              add [bx+si],al
00000F8E  0000              add [bx+si],al
00000F90  0000              add [bx+si],al
00000F92  0000              add [bx+si],al
00000F94  0000              add [bx+si],al
00000F96  0000              add [bx+si],al
00000F98  0000              add [bx+si],al
00000F9A  0000              add [bx+si],al
00000F9C  0000              add [bx+si],al
00000F9E  0000              add [bx+si],al
00000FA0  0000              add [bx+si],al
00000FA2  0000              add [bx+si],al
00000FA4  0000              add [bx+si],al
00000FA6  0000              add [bx+si],al
00000FA8  0000              add [bx+si],al
00000FAA  0000              add [bx+si],al
00000FAC  0000              add [bx+si],al
00000FAE  0000              add [bx+si],al
00000FB0  0000              add [bx+si],al
00000FB2  0000              add [bx+si],al
00000FB4  0000              add [bx+si],al
00000FB6  0000              add [bx+si],al
00000FB8  0000              add [bx+si],al
00000FBA  0000              add [bx+si],al
00000FBC  0000              add [bx+si],al
00000FBE  0000              add [bx+si],al
00000FC0  0000              add [bx+si],al
00000FC2  0000              add [bx+si],al
00000FC4  0000              add [bx+si],al
00000FC6  0000              add [bx+si],al
00000FC8  0000              add [bx+si],al
00000FCA  0000              add [bx+si],al
00000FCC  0000              add [bx+si],al
00000FCE  0000              add [bx+si],al
00000FD0  0000              add [bx+si],al
00000FD2  0000              add [bx+si],al
00000FD4  0000              add [bx+si],al
00000FD6  0000              add [bx+si],al
00000FD8  0000              add [bx+si],al
00000FDA  0000              add [bx+si],al
00000FDC  0000              add [bx+si],al
00000FDE  0000              add [bx+si],al
00000FE0  0000              add [bx+si],al
00000FE2  0000              add [bx+si],al
00000FE4  0000              add [bx+si],al
00000FE6  0000              add [bx+si],al
00000FE8  0000              add [bx+si],al
00000FEA  0000              add [bx+si],al
00000FEC  0000              add [bx+si],al
00000FEE  0000              add [bx+si],al
00000FF0  0000              add [bx+si],al
00000FF2  0000              add [bx+si],al
00000FF4  0000              add [bx+si],al
00000FF6  0000              add [bx+si],al
00000FF8  0000              add [bx+si],al
00000FFA  0000              add [bx+si],al
00000FFC  0000              add [bx+si],al
00000FFE  0000              add [bx+si],al
00001000  0000              add [bx+si],al
00001002  0000              add [bx+si],al
00001004  0000              add [bx+si],al
00001006  0000              add [bx+si],al
00001008  0000              add [bx+si],al
0000100A  0000              add [bx+si],al
0000100C  0000              add [bx+si],al
0000100E  0000              add [bx+si],al
00001010  0000              add [bx+si],al
00001012  0000              add [bx+si],al
00001014  0000              add [bx+si],al
00001016  0000              add [bx+si],al
00001018  0000              add [bx+si],al
0000101A  0000              add [bx+si],al
0000101C  0000              add [bx+si],al
0000101E  0000              add [bx+si],al
00001020  0000              add [bx+si],al
00001022  0000              add [bx+si],al
00001024  0000              add [bx+si],al
00001026  0000              add [bx+si],al
00001028  0000              add [bx+si],al
0000102A  0000              add [bx+si],al
0000102C  0000              add [bx+si],al
0000102E  0000              add [bx+si],al
00001030  0000              add [bx+si],al
00001032  0000              add [bx+si],al
00001034  0000              add [bx+si],al
00001036  0000              add [bx+si],al
00001038  0000              add [bx+si],al
0000103A  0000              add [bx+si],al
0000103C  0000              add [bx+si],al
0000103E  0000              add [bx+si],al
00001040  0000              add [bx+si],al
00001042  0000              add [bx+si],al
00001044  0000              add [bx+si],al
00001046  0000              add [bx+si],al
00001048  0000              add [bx+si],al
0000104A  0000              add [bx+si],al
0000104C  0000              add [bx+si],al
0000104E  0000              add [bx+si],al
00001050  0000              add [bx+si],al
00001052  0000              add [bx+si],al
00001054  0000              add [bx+si],al
00001056  0000              add [bx+si],al
00001058  0000              add [bx+si],al
0000105A  0000              add [bx+si],al
0000105C  0000              add [bx+si],al
0000105E  0000              add [bx+si],al
00001060  0000              add [bx+si],al
00001062  0000              add [bx+si],al
00001064  0000              add [bx+si],al
00001066  0000              add [bx+si],al
00001068  0000              add [bx+si],al
0000106A  0000              add [bx+si],al
0000106C  0000              add [bx+si],al
0000106E  0000              add [bx+si],al
00001070  0000              add [bx+si],al
00001072  0000              add [bx+si],al
00001074  0000              add [bx+si],al
00001076  0000              add [bx+si],al
00001078  0000              add [bx+si],al
0000107A  0000              add [bx+si],al
0000107C  0000              add [bx+si],al
0000107E  0000              add [bx+si],al
00001080  0000              add [bx+si],al
00001082  0000              add [bx+si],al
00001084  0000              add [bx+si],al
00001086  0000              add [bx+si],al
00001088  0000              add [bx+si],al
0000108A  0000              add [bx+si],al
0000108C  0000              add [bx+si],al
0000108E  0000              add [bx+si],al
00001090  0000              add [bx+si],al
00001092  0000              add [bx+si],al
00001094  0000              add [bx+si],al
00001096  0000              add [bx+si],al
00001098  0000              add [bx+si],al
0000109A  0000              add [bx+si],al
0000109C  0000              add [bx+si],al
0000109E  0000              add [bx+si],al
000010A0  0000              add [bx+si],al
000010A2  0000              add [bx+si],al
000010A4  0000              add [bx+si],al
000010A6  0000              add [bx+si],al
000010A8  0000              add [bx+si],al
000010AA  0000              add [bx+si],al
000010AC  0000              add [bx+si],al
000010AE  0000              add [bx+si],al
000010B0  0000              add [bx+si],al
000010B2  0000              add [bx+si],al
000010B4  0000              add [bx+si],al
000010B6  0000              add [bx+si],al
000010B8  0000              add [bx+si],al
000010BA  0000              add [bx+si],al
000010BC  0000              add [bx+si],al
000010BE  0000              add [bx+si],al
000010C0  0000              add [bx+si],al
000010C2  0000              add [bx+si],al
000010C4  0000              add [bx+si],al
000010C6  0000              add [bx+si],al
000010C8  0000              add [bx+si],al
000010CA  0000              add [bx+si],al
000010CC  0000              add [bx+si],al
000010CE  0000              add [bx+si],al
000010D0  0000              add [bx+si],al
000010D2  0000              add [bx+si],al
000010D4  0000              add [bx+si],al
000010D6  0000              add [bx+si],al
000010D8  0000              add [bx+si],al
000010DA  0000              add [bx+si],al
000010DC  0000              add [bx+si],al
000010DE  0000              add [bx+si],al
000010E0  0000              add [bx+si],al
000010E2  0000              add [bx+si],al
000010E4  0000              add [bx+si],al
000010E6  0000              add [bx+si],al
000010E8  0000              add [bx+si],al
000010EA  0000              add [bx+si],al
000010EC  0000              add [bx+si],al
000010EE  0000              add [bx+si],al
000010F0  0000              add [bx+si],al
000010F2  0000              add [bx+si],al
000010F4  0000              add [bx+si],al
000010F6  0000              add [bx+si],al
000010F8  0000              add [bx+si],al
000010FA  0000              add [bx+si],al
000010FC  0000              add [bx+si],al
000010FE  00                db 0x00
